target datalayout = "e-m:e-p270:32:32-p271:32:32-p272:64:64-i64:64-i128:128-f80:128-n8:16:32:64-S128"
target triple = "x86_64-pc-linux-gnu"

%struct.Ivy_Store_t_ = type { i32, i32, i32, i32, [256 x %struct.Ivy_Cut_t_] }
%struct.Ivy_Cut_t_ = type { i32, i16, i16, [6 x i32], i32 }

@.str.6 = private unnamed_addr constant [7 x i8] c"%d : {\00", align 1
@.str.7 = private unnamed_addr constant [4 x i8] c" %d\00", align 1
@.str.8 = private unnamed_addr constant [4 x i8] c" }\0A\00", align 1
@.str.9 = private unnamed_addr constant [9 x i8] c"Node %d\0A\00", align 1

; Function Attrs: nounwind uwtable
define void @Ivy_NodePrintCut(ptr noundef %0) #0 {
  %2 = alloca ptr, align 8
  %3 = alloca i32, align 4
  store ptr %0, ptr %2, align 8
  %4 = load ptr, ptr %2, align 8
  %5 = getelementptr inbounds %struct.Ivy_Cut_t_, ptr %4, i32 0, i32 1
  %6 = load i16, ptr %5, align 4
  %7 = sext i16 %6 to i32
  %8 = call i32 (ptr, ...) @printf(ptr noundef @.str.6, i32 noundef %7)
  store i32 0, ptr %3, align 4
  br label %9

9:                                                ; preds = %24, %1
  %10 = load i32, ptr %3, align 4
  %11 = load ptr, ptr %2, align 8
  %12 = getelementptr inbounds %struct.Ivy_Cut_t_, ptr %11, i32 0, i32 1
  %13 = load i16, ptr %12, align 4
  %14 = sext i16 %13 to i32
  %15 = icmp slt i32 %10, %14
  br i1 %15, label %16, label %27

16:                                               ; preds = %9
  %17 = load ptr, ptr %2, align 8
  %18 = getelementptr inbounds %struct.Ivy_Cut_t_, ptr %17, i32 0, i32 3
  %19 = load i32, ptr %3, align 4
  %20 = sext i32 %19 to i64
  %21 = getelementptr inbounds [6 x i32], ptr %18, i64 0, i64 %20
  %22 = load i32, ptr %21, align 4
  %23 = call i32 (ptr, ...) @printf(ptr noundef @.str.7, i32 noundef %22)
  br label %24

24:                                               ; preds = %16
  %25 = load i32, ptr %3, align 4
  %26 = add nsw i32 %25, 1
  store i32 %26, ptr %3, align 4
  br label %9, !llvm.loop !29

27:                                               ; preds = %9
  %28 = call i32 (ptr, ...) @printf(ptr noundef @.str.8)
  ret void
}

; Function Attrs: nounwind uwtable
define void @Ivy_NodePrintCuts(ptr noundef %0) #0 {
  %2 = alloca ptr, align 8
  %3 = alloca i32, align 4
  store ptr %0, ptr %2, align 8
  %4 = load ptr, ptr %2, align 8
  %5 = getelementptr inbounds %struct.Ivy_Store_t_, ptr %4, i32 0, i32 4
  %6 = getelementptr inbounds [256 x %struct.Ivy_Cut_t_], ptr %5, i64 0, i64 0
  %7 = getelementptr inbounds %struct.Ivy_Cut_t_, ptr %6, i32 0, i32 3
  %8 = getelementptr inbounds [6 x i32], ptr %7, i64 0, i64 0
  %9 = load i32, ptr %8, align 4
  %10 = call i32 (ptr, ...) @printf(ptr noundef @.str.9, i32 noundef %9)
  store i32 0, ptr %3, align 4
  br label %11

11:                                               ; preds = %24, %1
  %12 = load i32, ptr %3, align 4
  %13 = load ptr, ptr %2, align 8
  %14 = getelementptr inbounds %struct.Ivy_Store_t_, ptr %13, i32 0, i32 0
  %15 = load i32, ptr %14, align 4
  %16 = icmp slt i32 %12, %15
  br i1 %16, label %17, label %27

17:                                               ; preds = %11
  %18 = load ptr, ptr %2, align 8
  %19 = getelementptr inbounds %struct.Ivy_Store_t_, ptr %18, i32 0, i32 4
  %20 = getelementptr inbounds [256 x %struct.Ivy_Cut_t_], ptr %19, i64 0, i64 0
  %21 = load i32, ptr %3, align 4
  %22 = sext i32 %21 to i64
  %23 = getelementptr inbounds %struct.Ivy_Cut_t_, ptr %20, i64 %22
  call void @Ivy_NodePrintCut(ptr noundef %23)
  br label %24

24:                                               ; preds = %17
  %25 = load i32, ptr %3, align 4
  %26 = add nsw i32 %25, 1
  store i32 %26, ptr %3, align 4
  br label %11, !llvm.loop !30

27:                                               ; preds = %11
  ret void
}